target datalayout = "e-m:e-p270:32:32-p271:32:32-p272:64:64-i64:64-i128:128-f80:128-n8:16:32:64-S128"
target triple = "x86_64-unknown-linux-gnu"

%"class.QuantLib::Date" = type { i64 }
%struct.tm = type { i32, i32, i32, i32, i32, i32, i32, i32, i32, i64, ptr }

@_ZN8QuantLib4DateC1Ev = unnamed_addr alias void (ptr), ptr @_ZN8QuantLib4DateC2Ev
@_ZN8QuantLib4DateC1EiNS_5MonthEi = unnamed_addr alias void (ptr, i32, i32, i32), ptr @_ZN8QuantLib4DateC2EiNS_5MonthEi

; Function Attrs: mustprogress uwtable
define i64 @_ZN8QuantLib4Date10todaysDateEv() #5 align 2 {
entry:
  %retval = alloca %"class.QuantLib::Date", align 8
  %t = alloca i64, align 8
  %cleanup.dest.slot = alloca i32, align 4
  %lt = alloca ptr, align 8
  call void @llvm.lifetime.start.p0(i64 8, ptr %t) #3
  %call = call i64 @time(ptr noundef %t) #3
  %cmp = icmp eq i64 %call, -1
  br i1 %cmp, label %if.then, label %if.end

if.then:                                          ; preds = %entry
  call void @_ZN8QuantLib4DateC1Ev(ptr noundef nonnull align 8 dereferenceable(8) %retval)
  store i32 1, ptr %cleanup.dest.slot, align 4
  br label %cleanup

if.end:                                           ; preds = %entry
  call void @llvm.lifetime.start.p0(i64 8, ptr %lt) #3
  %call1 = call ptr @localtime(ptr noundef %t) #3
  store ptr %call1, ptr %lt, align 8, !tbaa !3
  %0 = load ptr, ptr %lt, align 8, !tbaa !3
  %tm_mday = getelementptr inbounds nuw %struct.tm, ptr %0, i32 0, i32 3
  %1 = load i32, ptr %tm_mday, align 4, !tbaa !33
  %2 = load ptr, ptr %lt, align 8, !tbaa !3
  %tm_mon = getelementptr inbounds nuw %struct.tm, ptr %2, i32 0, i32 4
  %3 = load i32, ptr %tm_mon, align 8, !tbaa !35
  %add = add nsw i32 %3, 1
  %4 = load ptr, ptr %lt, align 8, !tbaa !3
  %tm_year = getelementptr inbounds nuw %struct.tm, ptr %4, i32 0, i32 5
  %5 = load i32, ptr %tm_year, align 4, !tbaa !36
  %add2 = add nsw i32 %5, 1900
  call void @_ZN8QuantLib4DateC1EiNS_5MonthEi(ptr noundef nonnull align 8 dereferenceable(8) %retval, i32 noundef %1, i32 noundef %add, i32 noundef %add2)
  store i32 1, ptr %cleanup.dest.slot, align 4
  call void @llvm.lifetime.end.p0(i64 8, ptr %lt) #3
  br label %cleanup

cleanup:                                          ; preds = %if.end, %if.then
  call void @llvm.lifetime.end.p0(i64 8, ptr %t) #3
  %coerce.dive = getelementptr inbounds nuw %"class.QuantLib::Date", ptr %retval, i32 0, i32 0
  %6 = load i64, ptr %coerce.dive, align 8
  ret i64 %6
}