; Function Attrs: mustprogress uwtable
define i64 @_ZN8QuantLib4Date10todaysDateEv() local_unnamed_addr #4 align 2 {
entry:
  %retval = alloca %"class.QuantLib::Date", align 8
  %t = alloca i64, align 8
  call void @llvm.lifetime.start.p0(i64 8, ptr nonnull %t) #29
  %call = call i64 @time(ptr noundef nonnull %t) #29
  %cmp = icmp eq i64 %call, -1
  br i1 %cmp, label %if.then, label %if.end

if.then:                                          ; preds = %entry
  call void @_ZN8QuantLib4DateC1Ev(ptr noundef nonnull align 8 dereferenceable(8) %retval)
  br label %cleanup

if.end:                                           ; preds = %entry
  %call1 = call ptr @localtime(ptr noundef nonnull %t) #29
  %tm_mday = getelementptr inbounds nuw i8, ptr %call1, i64 12
  %0 = load i32, ptr %tm_mday, align 4, !tbaa !34
  %tm_mon = getelementptr inbounds nuw i8, ptr %call1, i64 16
  %1 = load i32, ptr %tm_mon, align 8, !tbaa !36
  %add = add nsw i32 %1, 1
  %tm_year = getelementptr inbounds nuw i8, ptr %call1, i64 20
  %2 = load i32, ptr %tm_year, align 4, !tbaa !37
  %add2 = add nsw i32 %2, 1900
  call void @_ZN8QuantLib4DateC1EiNS_5MonthEi(ptr noundef nonnull align 8 dereferenceable(8) %retval, i32 noundef %0, i32 noundef %add, i32 noundef %add2)
  br label %cleanup

cleanup:                                          ; preds = %if.end, %if.then
  call void @llvm.lifetime.end.p0(i64 8, ptr nonnull %t) #29
  %3 = load i64, ptr %retval, align 8
  ret i64 %3
}